target datalayout = "e-m:e-p270:32:32-p271:32:32-p272:64:64-i64:64-i128:128-f80:128-n8:16:32:64-S128"
target triple = "x86_64-pc-linux-gnu"

%struct.DdNode = type { i32, i32, ptr, %union.anon, i64 }
%union.anon = type { %struct.DdChildren }
%struct.DdChildren = type { ptr, ptr }
%struct.DdHashTable = type { i32, i32, ptr, ptr, ptr, i32, i32, i32, i32, ptr }
%struct.DdHashItem = type { ptr, i64, ptr, [1 x ptr] }

; Function Attrs: inlinehint nounwind uwtable
define internal i32 @ddLCHash(ptr noundef %0, i32 noundef %1, i32 noundef %2) #7 {
  %4 = alloca ptr, align 8
  %5 = alloca i32, align 4
  %6 = alloca i32, align 4
  %7 = alloca i32, align 4
  %8 = alloca i32, align 4
  store ptr %0, ptr %4, align 8, !tbaa !49
  store i32 %1, ptr %5, align 4, !tbaa !8
  store i32 %2, ptr %6, align 4, !tbaa !8
  call void @llvm.lifetime.start.p0(i64 4, ptr %7) #10
  %9 = load ptr, ptr %4, align 8, !tbaa !49
  %10 = getelementptr inbounds ptr, ptr %9, i64 0
  %11 = load ptr, ptr %10, align 8, !tbaa !50
  %12 = ptrtoint ptr %11 to i64
  %13 = trunc i64 %12 to i32
  %14 = mul i32 %13, 4256249
  store i32 %14, ptr %7, align 4, !tbaa !8
  call void @llvm.lifetime.start.p0(i64 4, ptr %8) #10
  store i32 1, ptr %8, align 4, !tbaa !8
  br label %15

15:                                               ; preds = %30, %3
  %16 = load i32, ptr %8, align 4, !tbaa !8
  %17 = load i32, ptr %5, align 4, !tbaa !8
  %18 = icmp ult i32 %16, %17
  br i1 %18, label %19, label %33

19:                                               ; preds = %15
  %20 = load i32, ptr %7, align 4, !tbaa !8
  %21 = mul i32 %20, 12582917
  %22 = load ptr, ptr %4, align 8, !tbaa !49
  %23 = load i32, ptr %8, align 4, !tbaa !8
  %24 = zext i32 %23 to i64
  %25 = getelementptr inbounds nuw ptr, ptr %22, i64 %24
  %26 = load ptr, ptr %25, align 8, !tbaa !50
  %27 = ptrtoint ptr %26 to i64
  %28 = trunc i64 %27 to i32
  %29 = add i32 %21, %28
  store i32 %29, ptr %7, align 4, !tbaa !8
  br label %30

30:                                               ; preds = %19
  %31 = load i32, ptr %8, align 4, !tbaa !8
  %32 = add i32 %31, 1
  store i32 %32, ptr %8, align 4, !tbaa !8
  br label %15, !llvm.loop !54

33:                                               ; preds = %15
  %34 = load i32, ptr %7, align 4, !tbaa !8
  %35 = load i32, ptr %6, align 4, !tbaa !8
  %36 = lshr i32 %34, %35
  call void @llvm.lifetime.end.p0(i64 4, ptr %8) #10
  call void @llvm.lifetime.end.p0(i64 4, ptr %7) #10
  ret i32 %36
}

; Function Attrs: nounwind uwtable
define ptr @cuddHashTableLookup(ptr noundef %0, ptr noundef %1) #0 {
  %3 = alloca ptr, align 8
  %4 = alloca ptr, align 8
  %5 = alloca ptr, align 8
  %6 = alloca i32, align 4
  %7 = alloca ptr, align 8
  %8 = alloca ptr, align 8
  %9 = alloca i32, align 4
  %10 = alloca i32, align 4
  %11 = alloca ptr, align 8
  %12 = alloca i32, align 4
  %13 = alloca ptr, align 8
  %14 = alloca i32, align 4
  store ptr %0, ptr %4, align 8, !tbaa !62
  store ptr %1, ptr %5, align 8, !tbaa !49
  call void @llvm.lifetime.start.p0(i64 4, ptr %6) #10
  call void @llvm.lifetime.start.p0(i64 8, ptr %7) #10
  call void @llvm.lifetime.start.p0(i64 8, ptr %8) #10
  call void @llvm.lifetime.start.p0(i64 4, ptr %9) #10
  call void @llvm.lifetime.start.p0(i64 4, ptr %10) #10
  %15 = load ptr, ptr %5, align 8, !tbaa !49
  %16 = load ptr, ptr %4, align 8, !tbaa !62
  %17 = getelementptr inbounds nuw %struct.DdHashTable, ptr %16, i32 0, i32 0
  %18 = load i32, ptr %17, align 8, !tbaa !64
  %19 = load ptr, ptr %4, align 8, !tbaa !62
  %20 = getelementptr inbounds nuw %struct.DdHashTable, ptr %19, i32 0, i32 6
  %21 = load i32, ptr %20, align 4, !tbaa !73
  %22 = call i32 @ddLCHash(ptr noundef %15, i32 noundef %18, i32 noundef %21)
  store i32 %22, ptr %6, align 4, !tbaa !8
  %23 = load ptr, ptr %4, align 8, !tbaa !62
  %24 = getelementptr inbounds nuw %struct.DdHashTable, ptr %23, i32 0, i32 2
  %25 = load ptr, ptr %24, align 8, !tbaa !74
  %26 = load i32, ptr %6, align 4, !tbaa !8
  %27 = zext i32 %26 to i64
  %28 = getelementptr inbounds nuw ptr, ptr %25, i64 %27
  %29 = load ptr, ptr %28, align 8, !tbaa !77
  store ptr %29, ptr %7, align 8, !tbaa !77
  store ptr null, ptr %8, align 8, !tbaa !77
  %30 = load ptr, ptr %4, align 8, !tbaa !62
  %31 = getelementptr inbounds nuw %struct.DdHashTable, ptr %30, i32 0, i32 0
  %32 = load i32, ptr %31, align 8, !tbaa !64
  store i32 %32, ptr %10, align 4, !tbaa !8
  br label %33

33:                                               ; preds = %124, %2
  %34 = load ptr, ptr %7, align 8, !tbaa !77
  %35 = icmp ne ptr %34, null
  br i1 %35, label %36, label %125

36:                                               ; preds = %33
  call void @llvm.lifetime.start.p0(i64 8, ptr %11) #10
  %37 = load ptr, ptr %7, align 8, !tbaa !77
  %38 = getelementptr inbounds nuw %struct.DdHashItem, ptr %37, i32 0, i32 3
  %39 = getelementptr inbounds [1 x ptr], ptr %38, i64 0, i64 0
  store ptr %39, ptr %11, align 8, !tbaa !49
  call void @llvm.lifetime.start.p0(i64 4, ptr %12) #10
  store i32 1, ptr %12, align 4, !tbaa !8
  store i32 0, ptr %9, align 4, !tbaa !8
  br label %40

40:                                               ; preds = %58, %36
  %41 = load i32, ptr %9, align 4, !tbaa !8
  %42 = load i32, ptr %10, align 4, !tbaa !8
  %43 = icmp ult i32 %41, %42
  br i1 %43, label %44, label %61

44:                                               ; preds = %40
  %45 = load ptr, ptr %5, align 8, !tbaa !49
  %46 = load i32, ptr %9, align 4, !tbaa !8
  %47 = zext i32 %46 to i64
  %48 = getelementptr inbounds nuw ptr, ptr %45, i64 %47
  %49 = load ptr, ptr %48, align 8, !tbaa !50
  %50 = load ptr, ptr %11, align 8, !tbaa !49
  %51 = load i32, ptr %9, align 4, !tbaa !8
  %52 = zext i32 %51 to i64
  %53 = getelementptr inbounds nuw ptr, ptr %50, i64 %52
  %54 = load ptr, ptr %53, align 8, !tbaa !50
  %55 = icmp ne ptr %49, %54
  br i1 %55, label %56, label %57

56:                                               ; preds = %44
  store i32 0, ptr %12, align 4, !tbaa !8
  br label %61

57:                                               ; preds = %44
  br label %58

58:                                               ; preds = %57
  %59 = load i32, ptr %9, align 4, !tbaa !8
  %60 = add i32 %59, 1
  store i32 %60, ptr %9, align 4, !tbaa !8
  br label %40, !llvm.loop !108

61:                                               ; preds = %56, %40
  %62 = load i32, ptr %12, align 4, !tbaa !8
  %63 = icmp ne i32 %62, 0
  br i1 %63, label %64, label %117

64:                                               ; preds = %61
  call void @llvm.lifetime.start.p0(i64 8, ptr %13) #10
  %65 = load ptr, ptr %7, align 8, !tbaa !77
  %66 = getelementptr inbounds nuw %struct.DdHashItem, ptr %65, i32 0, i32 2
  %67 = load ptr, ptr %66, align 8, !tbaa !78
  store ptr %67, ptr %13, align 8, !tbaa !50
  %68 = load ptr, ptr %7, align 8, !tbaa !77
  %69 = getelementptr inbounds nuw %struct.DdHashItem, ptr %68, i32 0, i32 1
  %70 = load i64, ptr %69, align 8, !tbaa !86
  %71 = add nsw i64 %70, -1
  store i64 %71, ptr %69, align 8, !tbaa !86
  %72 = load ptr, ptr %7, align 8, !tbaa !77
  %73 = getelementptr inbounds nuw %struct.DdHashItem, ptr %72, i32 0, i32 1
  %74 = load i64, ptr %73, align 8, !tbaa !86
  %75 = icmp eq i64 %74, 0
  br i1 %75, label %76, label %115

76:                                               ; preds = %64
  %77 = load ptr, ptr %13, align 8, !tbaa !50
  %78 = ptrtoint ptr %77 to i64
  %79 = and i64 %78, -2
  %80 = inttoptr i64 %79 to ptr
  %81 = getelementptr inbounds nuw %struct.DdNode, ptr %80, i32 0, i32 1
  %82 = load i32, ptr %81, align 4, !tbaa !55
  %83 = add i32 %82, -1
  store i32 %83, ptr %81, align 4, !tbaa !55
  %84 = load ptr, ptr %8, align 8, !tbaa !77
  %85 = icmp eq ptr %84, null
  br i1 %85, label %86, label %96

86:                                               ; preds = %76
  %87 = load ptr, ptr %7, align 8, !tbaa !77
  %88 = getelementptr inbounds nuw %struct.DdHashItem, ptr %87, i32 0, i32 0
  %89 = load ptr, ptr %88, align 8, !tbaa !80
  %90 = load ptr, ptr %4, align 8, !tbaa !62
  %91 = getelementptr inbounds nuw %struct.DdHashTable, ptr %90, i32 0, i32 2
  %92 = load ptr, ptr %91, align 8, !tbaa !74
  %93 = load i32, ptr %6, align 4, !tbaa !8
  %94 = zext i32 %93 to i64
  %95 = getelementptr inbounds nuw ptr, ptr %92, i64 %94
  store ptr %89, ptr %95, align 8, !tbaa !77
  br label %102

96:                                               ; preds = %76
  %97 = load ptr, ptr %7, align 8, !tbaa !77
  %98 = getelementptr inbounds nuw %struct.DdHashItem, ptr %97, i32 0, i32 0
  %99 = load ptr, ptr %98, align 8, !tbaa !80
  %100 = load ptr, ptr %8, align 8, !tbaa !77
  %101 = getelementptr inbounds nuw %struct.DdHashItem, ptr %100, i32 0, i32 0
  store ptr %99, ptr %101, align 8, !tbaa !80
  br label %102

102:                                              ; preds = %96, %86
  %103 = load ptr, ptr %4, align 8, !tbaa !62
  %104 = getelementptr inbounds nuw %struct.DdHashTable, ptr %103, i32 0, i32 3
  %105 = load ptr, ptr %104, align 8, !tbaa !70
  %106 = load ptr, ptr %7, align 8, !tbaa !77
  %107 = getelementptr inbounds nuw %struct.DdHashItem, ptr %106, i32 0, i32 0
  store ptr %105, ptr %107, align 8, !tbaa !80
  %108 = load ptr, ptr %7, align 8, !tbaa !77
  %109 = load ptr, ptr %4, align 8, !tbaa !62
  %110 = getelementptr inbounds nuw %struct.DdHashTable, ptr %109, i32 0, i32 3
  store ptr %108, ptr %110, align 8, !tbaa !70
  %111 = load ptr, ptr %4, align 8, !tbaa !62
  %112 = getelementptr inbounds nuw %struct.DdHashTable, ptr %111, i32 0, i32 7
  %113 = load i32, ptr %112, align 8, !tbaa !75
  %114 = add i32 %113, -1
  store i32 %114, ptr %112, align 8, !tbaa !75
  br label %115

115:                                              ; preds = %102, %64
  %116 = load ptr, ptr %13, align 8, !tbaa !50
  store ptr %116, ptr %3, align 8
  store i32 1, ptr %14, align 4
  call void @llvm.lifetime.end.p0(i64 8, ptr %13) #10
  br label %122

117:                                              ; preds = %61
  %118 = load ptr, ptr %7, align 8, !tbaa !77
  store ptr %118, ptr %8, align 8, !tbaa !77
  %119 = load ptr, ptr %7, align 8, !tbaa !77
  %120 = getelementptr inbounds nuw %struct.DdHashItem, ptr %119, i32 0, i32 0
  %121 = load ptr, ptr %120, align 8, !tbaa !80
  store ptr %121, ptr %7, align 8, !tbaa !77
  store i32 0, ptr %14, align 4
  br label %122

122:                                              ; preds = %117, %115
  call void @llvm.lifetime.end.p0(i64 4, ptr %12) #10
  call void @llvm.lifetime.end.p0(i64 8, ptr %11) #10
  %123 = load i32, ptr %14, align 4
  switch i32 %123, label %126 [
    i32 0, label %124
  ]

124:                                              ; preds = %122
  br label %33, !llvm.loop !109

125:                                              ; preds = %33
  store ptr null, ptr %3, align 8
  store i32 1, ptr %14, align 4
  br label %126

126:                                              ; preds = %125, %122
  call void @llvm.lifetime.end.p0(i64 4, ptr %10) #10
  call void @llvm.lifetime.end.p0(i64 4, ptr %9) #10
  call void @llvm.lifetime.end.p0(i64 8, ptr %8) #10
  call void @llvm.lifetime.end.p0(i64 8, ptr %7) #10
  call void @llvm.lifetime.end.p0(i64 4, ptr %6) #10
  %127 = load ptr, ptr %3, align 8
  ret ptr %127
}