; Function Attrs: nofree norecurse nosync nounwind memory(readwrite, inaccessiblemem: none) uwtable
define ptr @cuddHashTableLookup(ptr noundef captures(none) %0, ptr noundef readonly captures(none) %1) local_unnamed_addr #6 {
  %3 = load i32, ptr %0, align 8, !tbaa !56
  %4 = getelementptr inbounds nuw i8, ptr %0, i64 36
  %5 = load i32, ptr %4, align 4, !tbaa !63
  %6 = load ptr, ptr %1, align 8, !tbaa !45
  %7 = ptrtoint ptr %6 to i64
  %8 = trunc i64 %7 to i32
  %9 = mul i32 %8, 4256249
  %10 = icmp ugt i32 %3, 1
  br i1 %10, label %.lr.ph.preheader.i, label %ddLCHash.exit

.lr.ph.preheader.i:                               ; preds = %2
  %wide.trip.count.i = zext i32 %3 to i64
  br label %.lr.ph.i

.lr.ph.i:                                         ; preds = %.lr.ph.i, %.lr.ph.preheader.i
  %indvars.iv.i = phi i64 [ 1, %.lr.ph.preheader.i ], [ %indvars.iv.next.i, %.lr.ph.i ]
  %.089.i = phi i32 [ %9, %.lr.ph.preheader.i ], [ %16, %.lr.ph.i ]
  %11 = mul i32 %.089.i, 12582917
  %12 = getelementptr inbounds nuw ptr, ptr %1, i64 %indvars.iv.i
  %13 = load ptr, ptr %12, align 8, !tbaa !45
  %14 = ptrtoint ptr %13 to i64
  %15 = trunc i64 %14 to i32
  %16 = add i32 %11, %15
  %indvars.iv.next.i = add nuw nsw i64 %indvars.iv.i, 1
  %exitcond.not.i = icmp eq i64 %indvars.iv.next.i, %wide.trip.count.i
  br i1 %exitcond.not.i, label %ddLCHash.exit, label %.lr.ph.i, !llvm.loop !46

ddLCHash.exit:                                    ; preds = %.lr.ph.i, %2
  %.08.lcssa.i = phi i32 [ %9, %2 ], [ %16, %.lr.ph.i ]
  %17 = lshr i32 %.08.lcssa.i, %5
  %18 = getelementptr inbounds nuw i8, ptr %0, i64 8
  %19 = load ptr, ptr %18, align 8, !tbaa !64
  %20 = zext i32 %17 to i64
  %21 = getelementptr inbounds nuw ptr, ptr %19, i64 %20
  %.03754 = load ptr, ptr %21, align 8, !tbaa !67
  %.not55 = icmp eq ptr %.03754, null
  br i1 %.not55, label %.thread, label %.lr.ph58

.lr.ph58:                                         ; preds = %ddLCHash.exit
  %.not = icmp eq i32 %3, 0
  br i1 %.not, label %.critedge, label %.lr.ph.us.preheader

.lr.ph.us.preheader:                              ; preds = %.lr.ph58
  %wide.trip.count = zext i32 %3 to i64
  br label %.lr.ph.us

.lr.ph.us:                                        ; preds = %.lr.ph.us.preheader, %.loopexit.us
  %.03757.us = phi ptr [ %.037.us, %.loopexit.us ], [ %.03754, %.lr.ph.us.preheader ]
  %.03956.us = phi ptr [ %.03757.us, %.loopexit.us ], [ null, %.lr.ph.us.preheader ]
  %22 = getelementptr inbounds nuw i8, ptr %.03757.us, i64 24
  br label %24

23:                                               ; preds = %24
  %indvars.iv.next = add nuw nsw i64 %indvars.iv, 1
  %exitcond.not = icmp eq i64 %indvars.iv.next, %wide.trip.count
  br i1 %exitcond.not, label %.critedge, label %24, !llvm.loop !98

24:                                               ; preds = %.lr.ph.us, %23
  %indvars.iv = phi i64 [ 0, %.lr.ph.us ], [ %indvars.iv.next, %23 ]
  %25 = getelementptr inbounds nuw ptr, ptr %1, i64 %indvars.iv
  %26 = load ptr, ptr %25, align 8, !tbaa !45
  %27 = getelementptr inbounds nuw ptr, ptr %22, i64 %indvars.iv
  %28 = load ptr, ptr %27, align 8, !tbaa !45
  %.not42.us = icmp eq ptr %26, %28
  br i1 %.not42.us, label %23, label %.loopexit.us

.loopexit.us:                                     ; preds = %24
  %.037.us = load ptr, ptr %.03757.us, align 8, !tbaa !67
  %.not.us = icmp eq ptr %.037.us, null
  br i1 %.not.us, label %.thread, label %.lr.ph.us

.critedge:                                        ; preds = %23, %.lr.ph58
  %.039.lcssa48 = phi ptr [ null, %.lr.ph58 ], [ %.03956.us, %23 ]
  %.037.lcssa47 = phi ptr [ %.03754, %.lr.ph58 ], [ %.03757.us, %23 ]
  %29 = getelementptr inbounds nuw i8, ptr %.037.lcssa47, i64 16
  %30 = load ptr, ptr %29, align 8, !tbaa !68
  %31 = getelementptr inbounds nuw i8, ptr %.037.lcssa47, i64 8
  %32 = load i64, ptr %31, align 8, !tbaa !74
  %33 = add nsw i64 %32, -1
  store i64 %33, ptr %31, align 8, !tbaa !74
  %34 = icmp eq i64 %33, 0
  br i1 %34, label %35, label %.thread

35:                                               ; preds = %.critedge
  %36 = ptrtoint ptr %30 to i64
  %37 = and i64 %36, -2
  %38 = inttoptr i64 %37 to ptr
  %39 = getelementptr inbounds nuw i8, ptr %38, i64 4
  %40 = load i32, ptr %39, align 4, !tbaa !49
  %41 = add i32 %40, -1
  store i32 %41, ptr %39, align 4, !tbaa !49
  %42 = icmp eq ptr %.039.lcssa48, null
  %43 = load ptr, ptr %.037.lcssa47, align 8, !tbaa !76
  br i1 %42, label %44, label %45

44:                                               ; preds = %35
  store ptr %43, ptr %21, align 8, !tbaa !67
  br label %46

45:                                               ; preds = %35
  store ptr %43, ptr %.039.lcssa48, align 8, !tbaa !76
  br label %46

46:                                               ; preds = %45, %44
  %47 = getelementptr inbounds nuw i8, ptr %0, i64 16
  %48 = load ptr, ptr %47, align 8, !tbaa !86
  store ptr %48, ptr %.037.lcssa47, align 8, !tbaa !76
  store ptr %.037.lcssa47, ptr %47, align 8, !tbaa !86
  %49 = getelementptr inbounds nuw i8, ptr %0, i64 40
  %50 = load i32, ptr %49, align 8, !tbaa !65
  %51 = add i32 %50, -1
  store i32 %51, ptr %49, align 8, !tbaa !65
  br label %.thread

.thread:                                          ; preds = %.loopexit.us, %ddLCHash.exit, %46, %.critedge
  %.2 = phi ptr [ %30, %.critedge ], [ %30, %46 ], [ null, %ddLCHash.exit ], [ null, %.loopexit.us ]
  ret ptr %.2
}